; Function Attrs: mustprogress nofree norecurse nosync nounwind willreturn memory(read, inaccessiblemem: none) uwtable
define dso_local noundef zeroext i1 @_ZNK4llvm7Matcher13canMoveBeforeEPKS0_(ptr noundef nonnull readonly align 8 dereferenceable(28) %0, ptr noundef readonly %1) local_unnamed_addr #3 align 2 {
  %3 = icmp eq ptr %0, %1
  br i1 %3, label %_ZNK4llvm7Matcher17canMoveBeforeNodeEPKS0_.exit.thread, label %.lr.ph

.lr.ph:                                           ; preds = %2
  %4 = getelementptr inbounds nuw i8, ptr %0, i64 24
  %5 = load i32, ptr %4, align 8
  switch i32 %5, label %_ZNK4llvm7Matcher17canMoveBeforeNodeEPKS0_.exit.thread [
    i32 8, label %.lr.ph.split.us.preheader
    i32 9, label %.lr.ph.split.us.preheader
    i32 10, label %.lr.ph.split.us.preheader
    i32 11, label %.lr.ph.split.us.preheader
    i32 12, label %.lr.ph.split.us.preheader
    i32 14, label %.lr.ph.split.us.preheader
    i32 16, label %.lr.ph.split.us.preheader
    i32 17, label %.lr.ph.split.us.preheader
    i32 18, label %.lr.ph.split.us.preheader
    i32 19, label %.lr.ph.split.us.preheader
    i32 20, label %.lr.ph.split.us.preheader
    i32 21, label %.lr.ph.split.us.preheader
    i32 23, label %.lr.ph.split.us.preheader
    i32 24, label %.lr.ph.split.us.preheader
    i32 25, label %.lr.ph.split.us.preheader
    i32 26, label %.lr.ph.split.us.preheader
    i32 27, label %.lr.ph.split.us.preheader
  ]

.lr.ph.split.us.preheader:                        ; preds = %.lr.ph, %.lr.ph, %.lr.ph, %.lr.ph, %.lr.ph, %.lr.ph, %.lr.ph, %.lr.ph, %.lr.ph, %.lr.ph, %.lr.ph, %.lr.ph, %.lr.ph, %.lr.ph, %.lr.ph, %.lr.ph, %.lr.ph
  br label %.lr.ph.split.us

.lr.ph.split.us:                                  ; preds = %.lr.ph.split.us.preheader, %_ZNK4llvm7Matcher17canMoveBeforeNodeEPKS0_.exit.us
  %.08.us = phi ptr [ %9, %_ZNK4llvm7Matcher17canMoveBeforeNodeEPKS0_.exit.us ], [ %1, %.lr.ph.split.us.preheader ]
  %6 = getelementptr inbounds nuw i8, ptr %.08.us, i64 24
  %7 = load i32, ptr %6, align 8
  switch i32 %7, label %_ZNK4llvm7Matcher17canMoveBeforeNodeEPKS0_.exit.thread [
    i32 8, label %_ZNK4llvm7Matcher17canMoveBeforeNodeEPKS0_.exit.us
    i32 9, label %_ZNK4llvm7Matcher17canMoveBeforeNodeEPKS0_.exit.us
    i32 10, label %_ZNK4llvm7Matcher17canMoveBeforeNodeEPKS0_.exit.us
    i32 11, label %_ZNK4llvm7Matcher17canMoveBeforeNodeEPKS0_.exit.us
    i32 12, label %_ZNK4llvm7Matcher17canMoveBeforeNodeEPKS0_.exit.us
    i32 14, label %_ZNK4llvm7Matcher17canMoveBeforeNodeEPKS0_.exit.us
    i32 16, label %_ZNK4llvm7Matcher17canMoveBeforeNodeEPKS0_.exit.us
    i32 17, label %_ZNK4llvm7Matcher17canMoveBeforeNodeEPKS0_.exit.us
    i32 18, label %_ZNK4llvm7Matcher17canMoveBeforeNodeEPKS0_.exit.us
    i32 19, label %_ZNK4llvm7Matcher17canMoveBeforeNodeEPKS0_.exit.us
    i32 20, label %_ZNK4llvm7Matcher17canMoveBeforeNodeEPKS0_.exit.us
    i32 21, label %_ZNK4llvm7Matcher17canMoveBeforeNodeEPKS0_.exit.us
    i32 23, label %_ZNK4llvm7Matcher17canMoveBeforeNodeEPKS0_.exit.us
    i32 24, label %_ZNK4llvm7Matcher17canMoveBeforeNodeEPKS0_.exit.us
    i32 25, label %_ZNK4llvm7Matcher17canMoveBeforeNodeEPKS0_.exit.us
    i32 26, label %_ZNK4llvm7Matcher17canMoveBeforeNodeEPKS0_.exit.us
    i32 27, label %_ZNK4llvm7Matcher17canMoveBeforeNodeEPKS0_.exit.us
    i32 1, label %_ZNK4llvm7Matcher17canMoveBeforeNodeEPKS0_.exit.us
    i32 2, label %_ZNK4llvm7Matcher17canMoveBeforeNodeEPKS0_.exit.us
  ]

_ZNK4llvm7Matcher17canMoveBeforeNodeEPKS0_.exit.us: ; preds = %.lr.ph.split.us, %.lr.ph.split.us, %.lr.ph.split.us, %.lr.ph.split.us, %.lr.ph.split.us, %.lr.ph.split.us, %.lr.ph.split.us, %.lr.ph.split.us, %.lr.ph.split.us, %.lr.ph.split.us, %.lr.ph.split.us, %.lr.ph.split.us, %.lr.ph.split.us, %.lr.ph.split.us, %.lr.ph.split.us, %.lr.ph.split.us, %.lr.ph.split.us, %.lr.ph.split.us, %.lr.ph.split.us
  %8 = getelementptr inbounds nuw i8, ptr %.08.us, i64 8
  %9 = load ptr, ptr %8, align 8
  %10 = icmp eq ptr %0, %9
  br i1 %10, label %_ZNK4llvm7Matcher17canMoveBeforeNodeEPKS0_.exit.thread, label %.lr.ph.split.us, !llvm.loop !6

_ZNK4llvm7Matcher17canMoveBeforeNodeEPKS0_.exit.thread: ; preds = %_ZNK4llvm7Matcher17canMoveBeforeNodeEPKS0_.exit.us, %.lr.ph.split.us, %.lr.ph, %2
  %.lcssa = phi i1 [ true, %2 ], [ false, %.lr.ph ], [ false, %.lr.ph.split.us ], [ true, %_ZNK4llvm7Matcher17canMoveBeforeNodeEPKS0_.exit.us ]
  ret i1 %.lcssa
}